target datalayout = "e-m:e-p270:32:32-p271:32:32-p272:64:64-i64:64-i128:128-f80:128-n8:16:32:64-S128"
target triple = "x86_64-pc-linux-gnu"

%struct.ctest = type { ptr, ptr, ptr, i32, ptr, ptr, ptr, ptr, i32 }

@suite_name = internal global ptr null, align 8
@test_name = internal global ptr null, align 8

; Function Attrs: nounwind uwtable
define internal i32 @suite_test_filter(ptr noundef %0) #0 {
  %2 = alloca ptr, align 8
  %3 = alloca i32, align 4
  %4 = alloca i32, align 4
  store ptr %0, ptr %2, align 8, !tbaa !24
  call void @llvm.lifetime.start.p0(i64 4, ptr %3) #9
  call void @llvm.lifetime.start.p0(i64 4, ptr %4) #9
  %5 = load ptr, ptr @suite_name, align 8, !tbaa !3
  %6 = load ptr, ptr %2, align 8, !tbaa !24
  %7 = getelementptr inbounds nuw %struct.ctest, ptr %6, i32 0, i32 0
  %8 = load ptr, ptr %7, align 8, !tbaa !29
  %9 = load ptr, ptr @suite_name, align 8, !tbaa !3
  %10 = call i64 @strlen(ptr noundef %9) #11
  %11 = call i32 @strncmp(ptr noundef %5, ptr noundef %8, i64 noundef %10) #11
  %12 = icmp eq i32 %11, 0
  %13 = zext i1 %12 to i32
  store i32 %13, ptr %3, align 4, !tbaa !8
  %14 = load ptr, ptr @test_name, align 8, !tbaa !3
  %15 = load ptr, ptr %2, align 8, !tbaa !24
  %16 = getelementptr inbounds nuw %struct.ctest, ptr %15, i32 0, i32 1
  %17 = load ptr, ptr %16, align 8, !tbaa !30
  %18 = load ptr, ptr @test_name, align 8, !tbaa !3
  %19 = call i64 @strlen(ptr noundef %18) #11
  %20 = call i32 @strncmp(ptr noundef %14, ptr noundef %17, i64 noundef %19) #11
  %21 = icmp eq i32 %20, 0
  %22 = zext i1 %21 to i32
  store i32 %22, ptr %4, align 4, !tbaa !8
  %23 = load i32, ptr %3, align 4, !tbaa !8
  %24 = load i32, ptr %4, align 4, !tbaa !8
  %25 = and i32 %23, %24
  call void @llvm.lifetime.end.p0(i64 4, ptr %4) #9
  call void @llvm.lifetime.end.p0(i64 4, ptr %3) #9
  ret i32 %25
}