; Function Attrs: mustprogress nofree nounwind willreturn memory(read, inaccessiblemem: none) uwtable
define internal range(i32 0, 2) i32 @suite_test_filter(ptr noundef readonly captures(none) %0) #10 {
  %2 = load ptr, ptr @suite_name, align 8, !tbaa !7
  %3 = load ptr, ptr %0, align 8, !tbaa !27
  %4 = tail call i64 @strlen(ptr noundef nonnull dereferenceable(1) %2) #16
  %5 = tail call i32 @strncmp(ptr noundef nonnull %2, ptr noundef %3, i64 noundef %4) #16
  %6 = load ptr, ptr @test_name, align 8, !tbaa !7
  %7 = getelementptr inbounds nuw i8, ptr %0, i64 8
  %8 = load ptr, ptr %7, align 8, !tbaa !28
  %9 = tail call i64 @strlen(ptr noundef nonnull dereferenceable(1) %6) #16
  %10 = tail call i32 @strncmp(ptr noundef nonnull %6, ptr noundef %8, i64 noundef %9) #16
  %11 = or i32 %10, %5
  %12 = icmp eq i32 %11, 0
  %13 = zext i1 %12 to i32
  ret i32 %13
}